; ModuleID = '51/510.c'
source_filename = "51/510.c"
target datalayout = "e-m:e-p270:32:32-p271:32:32-p272:64:64-i64:64-f80:128-n8:16:32:64-S128"
target triple = "x86_64-pc-linux-gnu"

@.str = private unnamed_addr constant [4 x i8] c"%d\0A\00", align 1
@a = common dso_local global [501 x i8] zeroinitializer, align 16
@str = common dso_local global [501 x [5 x i8]] zeroinitializer, align 16
@.str.1 = private unnamed_addr constant [3 x i8] c"NO\00", align 1
@.str.2 = private unnamed_addr constant [3 x i8] c"%s\00", align 1
@.str.3 = private unnamed_addr constant [2 x i8] c"\0A\00", align 1

; Function Attrs: noinline nounwind uwtable
define dso_local i32 @main(i32 %0, i8** %1) #0 {
  %3 = alloca i32, align 4
  %4 = alloca i32, align 4
  %5 = alloca i8**, align 8
  %6 = alloca i32, align 4
  %7 = alloca i32, align 4
  %8 = alloca i32, align 4
  %9 = alloca i32, align 4
  %10 = alloca i32, align 4
  %11 = alloca [5 x i8], align 1
  %12 = alloca [501 x i32], align 16
  %13 = alloca i32, align 4
  store i32 0, i32* %3, align 4
  store i32 %0, i32* %4, align 4
  store i8** %1, i8*** %5, align 8
  store i32 0, i32* %8, align 4
  store i32 0, i32* %13, align 4
  %14 = call i32 (i8*, ...) @__isoc99_scanf(i8* getelementptr inbounds ([4 x i8], [4 x i8]* @.str, i64 0, i64 0), i32* %6)
  %15 = call i32 (i8*, ...) bitcast (i32 (...)* @gets to i32 (i8*, ...)*)(i8* getelementptr inbounds ([501 x i8], [501 x i8]* @a, i64 0, i64 0))
  %16 = call i64 @strlen(i8* getelementptr inbounds ([501 x i8], [501 x i8]* @a, i64 0, i64 0)) #3
  %17 = trunc i64 %16 to i32
  store i32 %17, i32* %7, align 4
  store i32 0, i32* %9, align 4
  br label %18

18:                                               ; preds = %52, %2
  %19 = load i32, i32* %9, align 4
  %20 = load i32, i32* %7, align 4
  %21 = load i32, i32* %6, align 4
  %22 = sub nsw i32 %20, %21
  %23 = icmp sle i32 %19, %22
  br i1 %23, label %24, label %55

24:                                               ; preds = %18
  %25 = load i32, i32* %9, align 4
  store i32 %25, i32* %10, align 4
  br label %26

26:                                               ; preds = %45, %24
  %27 = load i32, i32* %10, align 4
  %28 = load i32, i32* %9, align 4
  %29 = load i32, i32* %6, align 4
  %30 = add nsw i32 %28, %29
  %31 = icmp slt i32 %27, %30
  br i1 %31, label %32, label %48

32:                                               ; preds = %26
  %33 = load i32, i32* %10, align 4
  %34 = sext i32 %33 to i64
  %35 = getelementptr inbounds [501 x i8], [501 x i8]* @a, i64 0, i64 %34
  %36 = load i8, i8* %35, align 1
  %37 = load i32, i32* %9, align 4
  %38 = sext i32 %37 to i64
  %39 = getelementptr inbounds [501 x [5 x i8]], [501 x [5 x i8]]* @str, i64 0, i64 %38
  %40 = load i32, i32* %10, align 4
  %41 = load i32, i32* %9, align 4
  %42 = sub nsw i32 %40, %41
  %43 = sext i32 %42 to i64
  %44 = getelementptr inbounds [5 x i8], [5 x i8]* %39, i64 0, i64 %43
  store i8 %36, i8* %44, align 1
  br label %45

45:                                               ; preds = %32
  %46 = load i32, i32* %10, align 4
  %47 = add nsw i32 %46, 1
  store i32 %47, i32* %10, align 4
  br label %26

48:                                               ; preds = %26
  %49 = load i32, i32* %9, align 4
  %50 = sext i32 %49 to i64
  %51 = getelementptr inbounds [501 x i32], [501 x i32]* %12, i64 0, i64 %50
  store i32 1, i32* %51, align 4
  br label %52

52:                                               ; preds = %48
  %53 = load i32, i32* %9, align 4
  %54 = add nsw i32 %53, 1
  store i32 %54, i32* %9, align 4
  br label %18

55:                                               ; preds = %18
  store i32 0, i32* %9, align 4
  br label %56

56:                                               ; preds = %105, %55
  %57 = load i32, i32* %9, align 4
  %58 = load i32, i32* %7, align 4
  %59 = load i32, i32* %6, align 4
  %60 = sub nsw i32 %58, %59
  %61 = icmp sle i32 %57, %60
  br i1 %61, label %62, label %108

62:                                               ; preds = %56
  %63 = load i32, i32* %9, align 4
  %64 = add nsw i32 %63, 1
  store i32 %64, i32* %10, align 4
  br label %65

65:                                               ; preds = %89, %62
  %66 = load i32, i32* %10, align 4
  %67 = load i32, i32* %7, align 4
  %68 = load i32, i32* %6, align 4
  %69 = sub nsw i32 %67, %68
  %70 = icmp sle i32 %66, %69
  br i1 %70, label %71, label %92

71:                                               ; preds = %65
  %72 = load i32, i32* %9, align 4
  %73 = sext i32 %72 to i64
  %74 = getelementptr inbounds [501 x [5 x i8]], [501 x [5 x i8]]* @str, i64 0, i64 %73
  %75 = getelementptr inbounds [5 x i8], [5 x i8]* %74, i64 0, i64 0
  %76 = load i32, i32* %10, align 4
  %77 = sext i32 %76 to i64
  %78 = getelementptr inbounds [501 x [5 x i8]], [501 x [5 x i8]]* @str, i64 0, i64 %77
  %79 = getelementptr inbounds [5 x i8], [5 x i8]* %78, i64 0, i64 0
  %80 = call i32 @strcmp(i8* %75, i8* %79) #3
  %81 = icmp eq i32 %80, 0
  br i1 %81, label %82, label %88

82:                                               ; preds = %71
  %83 = load i32, i32* %9, align 4
  %84 = sext i32 %83 to i64
  %85 = getelementptr inbounds [501 x i32], [501 x i32]* %12, i64 0, i64 %84
  %86 = load i32, i32* %85, align 4
  %87 = add nsw i32 %86, 1
  store i32 %87, i32* %85, align 4
  br label %88

88:                                               ; preds = %82, %71
  br label %89

89:                                               ; preds = %88
  %90 = load i32, i32* %10, align 4
  %91 = add nsw i32 %90, 1
  store i32 %91, i32* %10, align 4
  br label %65

92:                                               ; preds = %65
  %93 = load i32, i32* %9, align 4
  %94 = sext i32 %93 to i64
  %95 = getelementptr inbounds [501 x i32], [501 x i32]* %12, i64 0, i64 %94
  %96 = load i32, i32* %95, align 4
  %97 = load i32, i32* %13, align 4
  %98 = icmp sgt i32 %96, %97
  br i1 %98, label %99, label %104

99:                                               ; preds = %92
  %100 = load i32, i32* %9, align 4
  %101 = sext i32 %100 to i64
  %102 = getelementptr inbounds [501 x i32], [501 x i32]* %12, i64 0, i64 %101
  %103 = load i32, i32* %102, align 4
  store i32 %103, i32* %13, align 4
  br label %104

104:                                              ; preds = %99, %92
  br label %105

105:                                              ; preds = %104
  %106 = load i32, i32* %9, align 4
  %107 = add nsw i32 %106, 1
  store i32 %107, i32* %9, align 4
  br label %56

108:                                              ; preds = %56
  %109 = load i32, i32* %13, align 4
  %110 = icmp eq i32 %109, 1
  br i1 %110, label %111, label %113

111:                                              ; preds = %108
  %112 = call i32 (i8*, ...) @printf(i8* getelementptr inbounds ([3 x i8], [3 x i8]* @.str.1, i64 0, i64 0))
  br label %145

113:                                              ; preds = %108
  %114 = load i32, i32* %13, align 4
  %115 = icmp sgt i32 %114, 1
  br i1 %115, label %116, label %144

116:                                              ; preds = %113
  %117 = load i32, i32* %13, align 4
  %118 = call i32 (i8*, ...) @printf(i8* getelementptr inbounds ([4 x i8], [4 x i8]* @.str, i64 0, i64 0), i32 %117)
  store i32 0, i32* %9, align 4
  br label %119

119:                                              ; preds = %140, %116
  %120 = load i32, i32* %9, align 4
  %121 = load i32, i32* %7, align 4
  %122 = load i32, i32* %6, align 4
  %123 = sub nsw i32 %121, %122
  %124 = icmp sle i32 %120, %123
  br i1 %124, label %125, label %143

125:                                              ; preds = %119
  %126 = load i32, i32* %9, align 4
  %127 = sext i32 %126 to i64
  %128 = getelementptr inbounds [501 x i32], [501 x i32]* %12, i64 0, i64 %127
  %129 = load i32, i32* %128, align 4
  %130 = load i32, i32* %13, align 4
  %131 = icmp eq i32 %129, %130
  br i1 %131, label %132, label %139

132:                                              ; preds = %125
  %133 = load i32, i32* %9, align 4
  %134 = sext i32 %133 to i64
  %135 = getelementptr inbounds [501 x [5 x i8]], [501 x [5 x i8]]* @str, i64 0, i64 %134
  %136 = getelementptr inbounds [5 x i8], [5 x i8]* %135, i64 0, i64 0
  %137 = call i32 (i8*, ...) @printf(i8* getelementptr inbounds ([3 x i8], [3 x i8]* @.str.2, i64 0, i64 0), i8* %136)
  %138 = call i32 (i8*, ...) @printf(i8* getelementptr inbounds ([2 x i8], [2 x i8]* @.str.3, i64 0, i64 0))
  br label %139

139:                                              ; preds = %132, %125
  br label %140

140:                                              ; preds = %139
  %141 = load i32, i32* %9, align 4
  %142 = add nsw i32 %141, 1
  store i32 %142, i32* %9, align 4
  br label %119

143:                                              ; preds = %119
  br label %144

144:                                              ; preds = %143, %113
  br label %145

145:                                              ; preds = %144, %111
  ret i32 0
}

declare dso_local i32 @__isoc99_scanf(i8*, ...) #1

declare dso_local i32 @gets(...) #1

; Function Attrs: nounwind readonly
declare dso_local i64 @strlen(i8*) #2

; Function Attrs: nounwind readonly
declare dso_local i32 @strcmp(i8*, i8*) #2

declare dso_local i32 @printf(i8*, ...) #1


!llvm.module.flags = !{!0}
!llvm.ident = !{!1}

!0 = !{i32 1, !"wchar_size", i32 4}
!1 = !{!"clang version 10.0.0-4ubuntu1 "}
